target datalayout = "e-m:e-p270:32:32-p271:32:32-p272:64:64-i64:64-i128:128-f80:128-n8:16:32:64-S128"
target triple = "x86_64-pc-linux-gnu"

%struct.SDL_AudioQueue = type { ptr, ptr, ptr, i64, i64, %struct.SDL_MemoryPool, %struct.SDL_MemoryPool }
%struct.SDL_MemoryPool = type { ptr, i64, i64, i64 }

; Function Attrs: nounwind uwtable
define internal ptr @AllocNewMemoryPoolBlock(ptr noundef %0) #0 {
  %2 = alloca ptr, align 8
  store ptr %0, ptr %2, align 8
  %3 = load ptr, ptr %2, align 8
  %4 = getelementptr inbounds nuw %struct.SDL_MemoryPool, ptr %3, i32 0, i32 1
  %5 = load i64, ptr %4, align 8
  %6 = call noalias ptr @SDL_malloc_REAL(i64 noundef %5)
  ret ptr %6
}

; Function Attrs: nounwind uwtable
define internal zeroext i1 @ReserveMemoryPoolBlocks(ptr noundef %0, i64 noundef %1) #0 {
  %3 = alloca i1, align 1
  %4 = alloca ptr, align 8
  %5 = alloca i64, align 8
  %6 = alloca ptr, align 8
  %7 = alloca i32, align 4
  store ptr %0, ptr %4, align 8
  store i64 %1, ptr %5, align 8
  br label %8

8:                                                ; preds = %32, %2
  %9 = load i64, ptr %5, align 8
  %10 = icmp ne i64 %9, 0
  br i1 %10, label %11, label %35

11:                                               ; preds = %8
  call void @llvm.lifetime.start.p0(i64 8, ptr %6) #6
  %12 = load ptr, ptr %4, align 8
  %13 = call ptr @AllocNewMemoryPoolBlock(ptr noundef %12)
  store ptr %13, ptr %6, align 8
  %14 = load ptr, ptr %6, align 8
  %15 = icmp eq ptr %14, null
  br i1 %15, label %16, label %17

16:                                               ; preds = %11
  store i1 false, ptr %3, align 1
  store i32 1, ptr %7, align 4
  br label %29

17:                                               ; preds = %11
  %18 = load ptr, ptr %4, align 8
  %19 = getelementptr inbounds nuw %struct.SDL_MemoryPool, ptr %18, i32 0, i32 0
  %20 = load ptr, ptr %19, align 8
  %21 = load ptr, ptr %6, align 8
  store ptr %20, ptr %21, align 8
  %22 = load ptr, ptr %6, align 8
  %23 = load ptr, ptr %4, align 8
  %24 = getelementptr inbounds nuw %struct.SDL_MemoryPool, ptr %23, i32 0, i32 0
  store ptr %22, ptr %24, align 8
  %25 = load ptr, ptr %4, align 8
  %26 = getelementptr inbounds nuw %struct.SDL_MemoryPool, ptr %25, i32 0, i32 2
  %27 = load i64, ptr %26, align 8
  %28 = add i64 %27, 1
  store i64 %28, ptr %26, align 8
  store i32 0, ptr %7, align 4
  br label %29

29:                                               ; preds = %17, %16
  call void @llvm.lifetime.end.p0(i64 8, ptr %6) #6
  %30 = load i32, ptr %7, align 4
  switch i32 %30, label %38 [
    i32 0, label %31
    i32 1, label %36
  ]

31:                                               ; preds = %29
  br label %32

32:                                               ; preds = %31
  %33 = load i64, ptr %5, align 8
  %34 = add i64 %33, -1
  store i64 %34, ptr %5, align 8
  br label %8, !llvm.loop !6

35:                                               ; preds = %8
  store i1 true, ptr %3, align 1
  br label %36

36:                                               ; preds = %35, %29
  %37 = load i1, ptr %3, align 1
  ret i1 %37

38:                                               ; preds = %29
  unreachable
}

; Function Attrs: nounwind uwtable
define internal void @InitMemoryPool(ptr noundef %0, i64 noundef %1, i64 noundef %2) #0 {
  %4 = alloca ptr, align 8
  %5 = alloca i64, align 8
  %6 = alloca i64, align 8
  store ptr %0, ptr %4, align 8
  store i64 %1, ptr %5, align 8
  store i64 %2, ptr %6, align 8
  %7 = load ptr, ptr %4, align 8
  call void @llvm.memset.p0.i64(ptr align 8 %7, i8 0, i64 32, i1 false)
  br label %8

8:                                                ; preds = %3
  br label %9

9:                                                ; preds = %8
  %10 = load i64, ptr %5, align 8
  %11 = load ptr, ptr %4, align 8
  %12 = getelementptr inbounds nuw %struct.SDL_MemoryPool, ptr %11, i32 0, i32 1
  store i64 %10, ptr %12, align 8
  %13 = load i64, ptr %6, align 8
  %14 = load ptr, ptr %4, align 8
  %15 = getelementptr inbounds nuw %struct.SDL_MemoryPool, ptr %14, i32 0, i32 3
  store i64 %13, ptr %15, align 8
  ret void
}

; Function Attrs: nounwind uwtable
define hidden ptr @SDL_CreateAudioQueue(i64 noundef %0) #0 {
  %2 = alloca ptr, align 8
  %3 = alloca i64, align 8
  %4 = alloca ptr, align 8
  %5 = alloca i32, align 4
  store i64 %0, ptr %3, align 8
  call void @llvm.lifetime.start.p0(i64 8, ptr %4) #6
  %6 = call noalias ptr @SDL_calloc_REAL(i64 noundef 1, i64 noundef 104) #7
  store ptr %6, ptr %4, align 8
  %7 = load ptr, ptr %4, align 8
  %8 = icmp ne ptr %7, null
  br i1 %8, label %10, label %9

9:                                                ; preds = %1
  store ptr null, ptr %2, align 8
  store i32 1, ptr %5, align 4
  br label %23

10:                                               ; preds = %1
  %11 = load ptr, ptr %4, align 8
  %12 = getelementptr inbounds nuw %struct.SDL_AudioQueue, ptr %11, i32 0, i32 5
  call void @InitMemoryPool(ptr noundef %12, i64 noundef 120, i64 noundef 8)
  %13 = load ptr, ptr %4, align 8
  %14 = getelementptr inbounds nuw %struct.SDL_AudioQueue, ptr %13, i32 0, i32 6
  %15 = load i64, ptr %3, align 8
  call void @InitMemoryPool(ptr noundef %14, i64 noundef %15, i64 noundef 4)
  %16 = load ptr, ptr %4, align 8
  %17 = getelementptr inbounds nuw %struct.SDL_AudioQueue, ptr %16, i32 0, i32 5
  %18 = call zeroext i1 @ReserveMemoryPoolBlocks(ptr noundef %17, i64 noundef 2)
  br i1 %18, label %21, label %19

19:                                               ; preds = %10
  %20 = load ptr, ptr %4, align 8
  call void @SDL_DestroyAudioQueue(ptr noundef %20)
  store ptr null, ptr %2, align 8
  store i32 1, ptr %5, align 4
  br label %23

21:                                               ; preds = %10
  %22 = load ptr, ptr %4, align 8
  store ptr %22, ptr %2, align 8
  store i32 1, ptr %5, align 4
  br label %23

23:                                               ; preds = %21, %19, %9
  call void @llvm.lifetime.end.p0(i64 8, ptr %4) #6
  %24 = load ptr, ptr %2, align 8
  ret ptr %24
}