; Function Attrs: nounwind uwtable
define hidden noundef ptr @SDL_CreateAudioQueue(i64 noundef %0) local_unnamed_addr #0 {
  %2 = tail call noalias dereferenceable_or_null(104) ptr @SDL_calloc_REAL(i64 noundef 1, i64 noundef 104) #11
  %.not = icmp eq ptr %2, null
  br i1 %.not, label %ReserveMemoryPoolBlocks.exit.thread, label %3

3:                                                ; preds = %1
  %4 = getelementptr inbounds nuw i8, ptr %2, i64 40
  tail call void @llvm.memset.p0.i64(ptr noundef nonnull align 8 dereferenceable(32) %4, i8 0, i64 24, i1 false)
  %5 = getelementptr inbounds nuw i8, ptr %2, i64 48
  store i64 120, ptr %5, align 8
  %6 = getelementptr inbounds nuw i8, ptr %2, i64 64
  store i64 8, ptr %6, align 8
  %7 = getelementptr inbounds nuw i8, ptr %2, i64 72
  tail call void @llvm.memset.p0.i64(ptr noundef nonnull align 8 dereferenceable(32) %7, i8 0, i64 24, i1 false)
  %8 = getelementptr inbounds nuw i8, ptr %2, i64 80
  store i64 %0, ptr %8, align 8
  %9 = getelementptr inbounds nuw i8, ptr %2, i64 96
  store i64 4, ptr %9, align 8
  %10 = getelementptr inbounds nuw i8, ptr %2, i64 56
  br label %11

11:                                               ; preds = %15, %3
  %12 = phi i64 [ 0, %3 ], [ %16, %15 ]
  %13 = phi ptr [ null, %3 ], [ %14, %15 ]
  %.01114.i = phi i64 [ 2, %3 ], [ %17, %15 ]
  %14 = tail call noalias ptr @SDL_malloc_REAL(i64 noundef 120) #10
  %.not16.not.i.not = icmp eq ptr %14, null
  br i1 %.not16.not.i.not, label %ReserveMemoryPoolBlocks.exit, label %15

15:                                               ; preds = %11
  store ptr %13, ptr %14, align 8
  store ptr %14, ptr %4, align 8
  %16 = add i64 %12, 1
  store i64 %16, ptr %10, align 8
  %17 = add nsw i64 %.01114.i, -1
  %.not.i = icmp eq i64 %17, 0
  br i1 %.not.i, label %ReserveMemoryPoolBlocks.exit.thread, label %11, !llvm.loop !6

ReserveMemoryPoolBlocks.exit:                     ; preds = %11
  tail call void @SDL_DestroyAudioQueue(ptr noundef nonnull %2)
  br label %ReserveMemoryPoolBlocks.exit.thread

ReserveMemoryPoolBlocks.exit.thread:              ; preds = %15, %1, %ReserveMemoryPoolBlocks.exit
  %.0 = phi ptr [ null, %ReserveMemoryPoolBlocks.exit ], [ null, %1 ], [ %2, %15 ]
  ret ptr %.0
}